; Function Attrs: nounwind uwtable
define range(i32 -1, 1) i32 @H5P_remove(ptr noundef %0, ptr noundef %1) local_unnamed_addr #0 {
  %3 = load i8, ptr @H5P_init_g, align 1, !tbaa !3, !range !7, !noundef !8
  %4 = trunc nuw i8 %3 to i1
  %5 = load i8, ptr @H5_libterm_g, align 1, !range !7
  %6 = trunc nuw i8 %5 to i1
  %7 = select i1 %4, i1 true, i1 %6
  br i1 %7, label %15, label %8, !prof !9

8:                                                ; preds = %2
  store i8 1, ptr @H5P_init_g, align 1, !tbaa !3
  %9 = tail call i32 @H5P__init_package()
  %10 = icmp slt i32 %9, 0
  br i1 %10, label %11, label %._crit_edge

._crit_edge:                                      ; preds = %8
  %.pre = load i8, ptr @H5P_init_g, align 1, !tbaa !3, !range !7
  %.pre4 = load i8, ptr @H5_libterm_g, align 1, !range !7
  %.pre5 = trunc nuw i8 %.pre to i1
  %.pre6 = trunc nuw i8 %.pre4 to i1
  br label %15

11:                                               ; preds = %8
  store i8 0, ptr @H5P_init_g, align 1, !tbaa !3
  %12 = load i64, ptr @H5E_FUNC_g, align 8, !tbaa !10
  %13 = load i64, ptr @H5E_CANTINIT_g, align 8, !tbaa !10
  %14 = tail call i32 (ptr, ptr, i32, i64, i64, ptr, ...) @H5E_printf_stack(ptr noundef nonnull @.str.7, ptr noundef nonnull @__func__.H5P_remove, i32 noundef 4987, i64 noundef %12, i64 noundef %13, ptr noundef nonnull @.str.8) #14
  br label %25

15:                                               ; preds = %._crit_edge, %2
  %.pre-phi7 = phi i1 [ %.pre6, %._crit_edge ], [ %6, %2 ]
  %.pre-phi = phi i1 [ %.pre5, %._crit_edge ], [ %4, %2 ]
  %16 = xor i1 %.pre-phi7, true
  %17 = select i1 %.pre-phi, i1 true, i1 %16
  br i1 %17, label %18, label %25, !prof !9

18:                                               ; preds = %15
  %19 = tail call fastcc i32 @H5P__do_prop(ptr noundef %0, ptr noundef %1, ptr noundef nonnull @H5P__del_plist_cb, ptr noundef nonnull @H5P__del_pclass_cb, ptr noundef null)
  %20 = icmp slt i32 %19, 0
  br i1 %20, label %21, label %25

21:                                               ; preds = %18
  %22 = load i64, ptr @H5E_PLIST_g, align 8, !tbaa !10
  %23 = load i64, ptr @H5E_CANTOPERATE_g, align 8, !tbaa !10
  %24 = tail call i32 (ptr, ptr, i32, i64, i64, ptr, ...) @H5E_printf_stack(ptr noundef nonnull @.str.7, ptr noundef nonnull @__func__.H5P_remove, i32 noundef 4995, i64 noundef %22, i64 noundef %23, ptr noundef nonnull @.str.59) #14
  br label %25

25:                                               ; preds = %11, %21, %18, %15
  %.0 = phi i32 [ -1, %11 ], [ -1, %21 ], [ 0, %18 ], [ 0, %15 ]
  ret i32 %.0
}